; Function Attrs: mustprogress uwtable
define internal noundef zeroext i1 @_ZN12_GLOBAL__N_125TargetCompileFeaturesImpl19HandleDirectContentEP8cmTargetRKSt6vectorINSt7__cxx1112basic_stringIcSt11char_traitsIcESaIcEEESaIS9_EEbb(ptr noundef nonnull align 8 dereferenceable(64) %0, ptr noundef %1, ptr nocapture noundef nonnull readonly align 8 dereferenceable(24) %2, i1 zeroext %3, i1 zeroext %4) unnamed_addr #3 align 2 personality ptr @__gxx_personality_v0 {
  %6 = alloca %class.cmStandardLevelResolver, align 8
  %7 = alloca %"class.std::__cxx11::basic_string", align 8
  %8 = getelementptr inbounds i8, ptr %0, i64 48
  %9 = load ptr, ptr %8, align 8
  store ptr %9, ptr %6, align 8
  %10 = load ptr, ptr %2, align 8
  %11 = getelementptr inbounds i8, ptr %2, i64 8
  %12 = load ptr, ptr %11, align 8
  %.not18 = icmp eq ptr %10, %12
  br i1 %.not18, label %.loopexit, label %.lr.ph

.lr.ph:                                           ; preds = %5, %18
  %.sroa.010.019 = phi ptr [ %19, %18 ], [ %10, %5 ]
  call void @_ZNSt7__cxx1112basic_stringIcSt11char_traitsIcESaIcEEC1Ev(ptr noundef nonnull align 8 dereferenceable(32) %7) #9
  %13 = invoke noundef zeroext i1 @_ZNK23cmStandardLevelResolver24AddRequiredTargetFeatureEP8cmTargetRKNSt7__cxx1112basic_stringIcSt11char_traitsIcESaIcEEEPS7_(ptr noundef nonnull align 8 dereferenceable(8) %6, ptr noundef %1, ptr noundef nonnull align 8 dereferenceable(32) %.sroa.010.019, ptr noundef nonnull %7)
          to label %14 unwind label %.loopexit14

14:                                               ; preds = %.lr.ph
  br i1 %13, label %18, label %15

15:                                               ; preds = %14
  invoke void @_ZN23cmTargetPropCommandBase8SetErrorERKNSt7__cxx1112basic_stringIcSt11char_traitsIcESaIcEEE(ptr noundef nonnull align 8 dereferenceable(64) %0, ptr noundef nonnull align 8 dereferenceable(32) %7)
          to label %17 unwind label %.loopexit.split-lp

.loopexit14:                                      ; preds = %.lr.ph
  %lpad.loopexit = landingpad { ptr, i32 }
          cleanup
  br label %16

.loopexit.split-lp:                               ; preds = %15
  %lpad.loopexit.split-lp = landingpad { ptr, i32 }
          cleanup
  br label %16

16:                                               ; preds = %.loopexit.split-lp, %.loopexit14
  %lpad.phi = phi { ptr, i32 } [ %lpad.loopexit, %.loopexit14 ], [ %lpad.loopexit.split-lp, %.loopexit.split-lp ]
  call void @_ZNSt7__cxx1112basic_stringIcSt11char_traitsIcESaIcEED1Ev(ptr noundef nonnull align 8 dereferenceable(32) %7) #9
  resume { ptr, i32 } %lpad.phi

17:                                               ; preds = %15
  call void @_ZNSt7__cxx1112basic_stringIcSt11char_traitsIcESaIcEED1Ev(ptr noundef nonnull align 8 dereferenceable(32) %7) #9
  br label %.loopexit

18:                                               ; preds = %14
  call void @_ZNSt7__cxx1112basic_stringIcSt11char_traitsIcESaIcEED1Ev(ptr noundef nonnull align 8 dereferenceable(32) %7) #9
  %19 = getelementptr inbounds i8, ptr %.sroa.010.019, i64 32
  %.not = icmp eq ptr %19, %12
  br i1 %.not, label %.loopexit, label %.lr.ph

.loopexit:                                        ; preds = %18, %5, %17
  %.not17 = phi i1 [ false, %17 ], [ true, %5 ], [ true, %18 ]
  ret i1 %.not17
}